ARM GAS  C:\Users\kazi\AppData\Local\Temp\ccJQ2SrT.s 			page 1


   1              		.syntax unified
   2              		.cpu cortex-m3
   3              		.fpu softvfp
   4              		.eabi_attribute 20, 1
   5              		.eabi_attribute 21, 1
   6              		.eabi_attribute 23, 3
   7              		.eabi_attribute 24, 1
   8              		.eabi_attribute 25, 1
   9              		.eabi_attribute 26, 1
  10              		.eabi_attribute 30, 1
  11              		.eabi_attribute 34, 1
  12              		.eabi_attribute 18, 4
  13              		.thumb
  14              		.file	"main.c"
  15              		.text
  16              	.Ltext0:
  17              		.cfi_sections	.debug_frame
  18              		.section	.text.RX_INT,"ax",%progbits
  19              		.align	2
  20              		.global	RX_INT
  21              		.thumb
  22              		.thumb_func
  23              		.type	RX_INT, %function
  24              	RX_INT:
  25              	.LFB63:
  26              		.file 1 ".\\main.c"
   1:.\main.c      **** /* ========================================
   2:.\main.c      ****  *
   3:.\main.c      ****  * Copyright YOUR COMPANY, THE YEAR
   4:.\main.c      ****  * All Rights Reserved
   5:.\main.c      ****  * UNPUBLISHED, LICENSED SOFTWARE.
   6:.\main.c      ****  *
   7:.\main.c      ****  * CONFIDENTIAL AND PROPRIETARY INFORMATION
   8:.\main.c      ****  * WHICH IS THE PROPERTY OF your company.
   9:.\main.c      ****  *
  10:.\main.c      ****  * ========================================
  11:.\main.c      **** */
  12:.\main.c      **** #include <project.h>
  13:.\main.c      **** #include <string.h>
  14:.\main.c      **** 
  15:.\main.c      **** 
  16:.\main.c      **** CY_ISR(RX_INT) {
  27              		.loc 1 16 0
  28              		.cfi_startproc
  29              		@ args = 0, pretend = 0, frame = 0
  30              		@ frame_needed = 0, uses_anonymous_args = 0
  31 0000 08B5     		push	{r3, lr}
  32              		.cfi_def_cfa_offset 8
  33              		.cfi_offset 3, -8
  34              		.cfi_offset 14, -4
  17:.\main.c      ****     uint8 char_buf = UART_ReadRxData();
  35              		.loc 1 17 0
  36 0002 FFF7FEFF 		bl	UART_ReadRxData
  37              	.LVL0:
  38 0006 08BD     		pop	{r3, pc}
  39              		.cfi_endproc
  40              	.LFE63:
ARM GAS  C:\Users\kazi\AppData\Local\Temp\ccJQ2SrT.s 			page 2


  41              		.size	RX_INT, .-RX_INT
  42              		.section	.text.GetRandom,"ax",%progbits
  43              		.align	2
  44              		.global	GetRandom
  45              		.thumb
  46              		.thumb_func
  47              		.type	GetRandom, %function
  48              	GetRandom:
  49              	.LFB64:
  18:.\main.c      **** }
  19:.\main.c      **** 
  20:.\main.c      **** // This function generates true random values using the temperatures recorded by the LED
  21:.\main.c      **** void GetRandom(uint8* buf, int n ) {
  50              		.loc 1 21 0
  51              		.cfi_startproc
  52              		@ args = 0, pretend = 0, frame = 0
  53              		@ frame_needed = 0, uses_anonymous_args = 0
  54              	.LVL1:
  55 0000 2DE9F843 		push	{r3, r4, r5, r6, r7, r8, r9, lr}
  56              		.cfi_def_cfa_offset 32
  57              		.cfi_offset 3, -32
  58              		.cfi_offset 4, -28
  59              		.cfi_offset 5, -24
  60              		.cfi_offset 6, -20
  61              		.cfi_offset 7, -16
  62              		.cfi_offset 8, -12
  63              		.cfi_offset 9, -8
  64              		.cfi_offset 14, -4
  65 0004 8046     		mov	r8, r0
  66 0006 0D46     		mov	r5, r1
  67              	.LVL2:
  22:.\main.c      ****     uint8 ret = 0;
  23:.\main.c      ****     uint16 prev,curr = 0;
  24:.\main.c      ****     int inner_counter,outer_counter = 0;
  68              		.loc 1 24 0
  69 0008 0024     		movs	r4, #0
  22:.\main.c      ****     uint8 ret = 0;
  70              		.loc 1 22 0
  71 000a A146     		mov	r9, r4
  25:.\main.c      ****     
  26:.\main.c      ****     while(outer_counter < n) {
  72              		.loc 1 26 0
  73 000c 1AE0     		b	.L5
  74              	.LVL3:
  75              	.L8:
  27:.\main.c      ****         if (ADC_DelSig_1_IsEndConversion(ADC_DelSig_1_WAIT_FOR_RESULT)) {
  76              		.loc 1 27 0
  77 000e 0020     		movs	r0, #0
  78 0010 FFF7FEFF 		bl	ADC_DelSig_1_IsEndConversion
  79              	.LVL4:
  80 0014 B0B1     		cbz	r0, .L5
  28:.\main.c      ****             curr = ADC_DelSig_1_GetResult16(); // read the adc
  81              		.loc 1 28 0
  82 0016 FFF7FEFF 		bl	ADC_DelSig_1_GetResult16
  83              	.LVL5:
  84 001a 80B2     		uxth	r0, r0
  85              	.LVL6:
ARM GAS  C:\Users\kazi\AppData\Local\Temp\ccJQ2SrT.s 			page 3


  29:.\main.c      ****             if (inner_counter != 8) { // we compare the latest value with the previous as our rando
  86              		.loc 1 29 0
  87 001c 082F     		cmp	r7, #8
  88 001e 09D0     		beq	.L6
  30:.\main.c      ****                 ret = ret + ((curr > prev)<<inner_counter); // ret holds the running sum for our by
  89              		.loc 1 30 0
  90 0020 B042     		cmp	r0, r6
  91 0022 94BF     		ite	ls
  92 0024 0026     		movls	r6, #0
  93              	.LVL7:
  94 0026 0126     		movhi	r6, #1
  95 0028 BE40     		lsls	r6, r6, r7
  96 002a 09EB0603 		add	r3, r9, r6
  97 002e 5FFA83F9 		uxtb	r9, r3
  98              	.LVL8:
  99 0032 05E0     		b	.L7
 100              	.LVL9:
 101              	.L6:
  31:.\main.c      ****             } else {
  32:.\main.c      ****                 buf[outer_counter] = ret; // after every 8 iterations, we fill the next byte in our
 102              		.loc 1 32 0
 103 0034 08F80490 		strb	r9, [r8, r4]
 104              	.LVL10:
  33:.\main.c      ****                 inner_counter = 0;
  34:.\main.c      ****                 ret = 0;
  35:.\main.c      ****                 outer_counter++;
 105              		.loc 1 35 0
 106 0038 0134     		adds	r4, r4, #1
 107              	.LVL11:
  33:.\main.c      ****                 inner_counter = 0;
 108              		.loc 1 33 0
 109 003a 4FF00009 		mov	r9, #0
  34:.\main.c      ****                 outer_counter++;
 110              		.loc 1 34 0
 111 003e 4F46     		mov	r7, r9
 112              	.LVL12:
 113              	.L7:
  36:.\main.c      ****             }
  37:.\main.c      ****             
  38:.\main.c      ****             prev = curr;
  39:.\main.c      ****             inner_counter++;
 114              		.loc 1 39 0
 115 0040 0137     		adds	r7, r7, #1
 116              	.LVL13:
  38:.\main.c      ****             inner_counter++;
 117              		.loc 1 38 0
 118 0042 0646     		mov	r6, r0
 119              	.LVL14:
 120              	.L5:
  26:.\main.c      ****         if (ADC_DelSig_1_IsEndConversion(ADC_DelSig_1_WAIT_FOR_RESULT)) {
 121              		.loc 1 26 0
 122 0044 AC42     		cmp	r4, r5
 123 0046 E2DB     		blt	.L8
  40:.\main.c      ****         }
  41:.\main.c      ****     }
  42:.\main.c      **** }
 124              		.loc 1 42 0
ARM GAS  C:\Users\kazi\AppData\Local\Temp\ccJQ2SrT.s 			page 4


 125 0048 BDE8F883 		pop	{r3, r4, r5, r6, r7, r8, r9, pc}
 126              		.cfi_endproc
 127              	.LFE64:
 128              		.size	GetRandom, .-GetRandom
 129              		.section	.text.HexToByte,"ax",%progbits
 130              		.align	2
 131              		.global	HexToByte
 132              		.thumb
 133              		.thumb_func
 134              		.type	HexToByte, %function
 135              	HexToByte:
 136              	.LFB65:
  43:.\main.c      **** 
  44:.\main.c      **** // This function takes a hex string and fills a byte array with the parsed values
  45:.\main.c      **** void HexToByte(char* hex_string, uint8* buf, int len) {
 137              		.loc 1 45 0
 138              		.cfi_startproc
 139              		@ args = 0, pretend = 0, frame = 0
 140              		@ frame_needed = 0, uses_anonymous_args = 0
 141              	.LVL15:
 142 0000 F8B5     		push	{r3, r4, r5, r6, r7, lr}
 143              		.cfi_def_cfa_offset 24
 144              		.cfi_offset 3, -24
 145              		.cfi_offset 4, -20
 146              		.cfi_offset 5, -16
 147              		.cfi_offset 6, -12
 148              		.cfi_offset 7, -8
 149              		.cfi_offset 14, -4
 150 0002 0746     		mov	r7, r0
 151 0004 0E46     		mov	r6, r1
 152 0006 1546     		mov	r5, r2
 153              	.LVL16:
  46:.\main.c      ****     int i = 0;
 154              		.loc 1 46 0
 155 0008 0024     		movs	r4, #0
  47:.\main.c      ****     while ( i < len) {
 156              		.loc 1 47 0
 157 000a 06E0     		b	.L11
 158              	.LVL17:
 159              	.L12:
 160              	.LBB2:
  48:.\main.c      ****         sscanf(hex_string+(2*i), "%2hh", &buf[i]);
 161              		.loc 1 48 0
 162 000c 07EB4400 		add	r0, r7, r4, lsl #1
 163 0010 0349     		ldr	r1, .L14
 164 0012 3219     		adds	r2, r6, r4
 165 0014 FFF7FEFF 		bl	sscanf
 166              	.LVL18:
  49:.\main.c      ****         i++;
 167              		.loc 1 49 0
 168 0018 0134     		adds	r4, r4, #1
 169              	.LVL19:
 170              	.L11:
 171              	.LBE2:
  47:.\main.c      ****     while ( i < len) {
 172              		.loc 1 47 0
 173 001a AC42     		cmp	r4, r5
ARM GAS  C:\Users\kazi\AppData\Local\Temp\ccJQ2SrT.s 			page 5


 174 001c F6DB     		blt	.L12
  50:.\main.c      ****     }
  51:.\main.c      ****     // assuming all necessary sanitization+padding happens before this function is called
  52:.\main.c      **** }
 175              		.loc 1 52 0
 176 001e F8BD     		pop	{r3, r4, r5, r6, r7, pc}
 177              	.LVL20:
 178              	.L15:
 179              		.align	2
 180              	.L14:
 181 0020 00000000 		.word	.LC0
 182              		.cfi_endproc
 183              	.LFE65:
 184              		.size	HexToByte, .-HexToByte
 185              		.section	.text.HexPrint,"ax",%progbits
 186              		.align	2
 187              		.global	HexPrint
 188              		.thumb
 189              		.thumb_func
 190              		.type	HexPrint, %function
 191              	HexPrint:
 192              	.LFB66:
  53:.\main.c      **** 
  54:.\main.c      **** // This function takes an array of len bytes and prints out a hex string over UART
  55:.\main.c      **** void HexPrint(uint8* buf, int len) {
 193              		.loc 1 55 0
 194              		.cfi_startproc
 195              		@ args = 0, pretend = 0, frame = 0
 196              		@ frame_needed = 1, uses_anonymous_args = 0
 197              	.LVL21:
 198 0000 2DE9F041 		push	{r4, r5, r6, r7, r8, lr}
 199              		.cfi_def_cfa_offset 24
 200              		.cfi_offset 4, -24
 201              		.cfi_offset 5, -20
 202              		.cfi_offset 6, -16
 203              		.cfi_offset 7, -12
 204              		.cfi_offset 8, -8
 205              		.cfi_offset 14, -4
 206 0004 00AF     		add	r7, sp, #0
 207              		.cfi_def_cfa_register 7
 208 0006 8046     		mov	r8, r0
 209 0008 0D46     		mov	r5, r1
  56:.\main.c      ****     char ret[2*len]; //each number in buffer will have two hex digits
 210              		.loc 1 56 0
 211 000a 4B00     		lsls	r3, r1, #1
 212              	.LVL22:
 213 000c 0733     		adds	r3, r3, #7
 214              	.LVL23:
 215 000e 23F00703 		bic	r3, r3, #7
 216              	.LVL24:
 217 0012 ADEB030D 		sub	sp, sp, r3
 218 0016 6E46     		mov	r6, sp
 219              	.LVL25:
  57:.\main.c      ****     int i = 0;
 220              		.loc 1 57 0
 221 0018 0024     		movs	r4, #0
  58:.\main.c      ****     while (i < len) {
ARM GAS  C:\Users\kazi\AppData\Local\Temp\ccJQ2SrT.s 			page 6


 222              		.loc 1 58 0
 223 001a 07E0     		b	.L17
 224              	.LVL26:
 225              	.L18:
 226              	.LBB3:
  59:.\main.c      ****         sprintf(ret+(i*2), "%02X", buf[i]);
 227              		.loc 1 59 0
 228 001c 06EB4400 		add	r0, r6, r4, lsl #1
 229 0020 0649     		ldr	r1, .L20
 230 0022 18F80420 		ldrb	r2, [r8, r4]	@ zero_extendqisi2
 231 0026 FFF7FEFF 		bl	sprintf
 232              	.LVL27:
  60:.\main.c      ****         i++;
 233              		.loc 1 60 0
 234 002a 0134     		adds	r4, r4, #1
 235              	.LVL28:
 236              	.L17:
 237              	.LBE3:
  58:.\main.c      ****     while (i < len) {
 238              		.loc 1 58 0
 239 002c AC42     		cmp	r4, r5
 240 002e F5DB     		blt	.L18
  61:.\main.c      ****     }
  62:.\main.c      ****     UART_PutString(ret);
 241              		.loc 1 62 0
 242 0030 3046     		mov	r0, r6
 243 0032 FFF7FEFF 		bl	UART_PutString
 244              	.LVL29:
  63:.\main.c      **** }
 245              		.loc 1 63 0
 246 0036 BD46     		mov	sp, r7
 247              		.cfi_def_cfa_register 13
 248              		@ sp needed
 249 0038 BDE8F081 		pop	{r4, r5, r6, r7, r8, pc}
 250              	.LVL30:
 251              	.L21:
 252              		.align	2
 253              	.L20:
 254 003c 08000000 		.word	.LC1
 255              		.cfi_endproc
 256              	.LFE66:
 257              		.size	HexPrint, .-HexPrint
 258              		.section	.text.main,"ax",%progbits
 259              		.align	2
 260              		.global	main
 261              		.thumb
 262              		.thumb_func
 263              		.type	main, %function
 264              	main:
 265              	.LFB67:
  64:.\main.c      **** 
  65:.\main.c      **** 
  66:.\main.c      **** int main()
  67:.\main.c      **** {
 266              		.loc 1 67 0
 267              		.cfi_startproc
 268              		@ args = 0, pretend = 0, frame = 24
ARM GAS  C:\Users\kazi\AppData\Local\Temp\ccJQ2SrT.s 			page 7


 269              		@ frame_needed = 0, uses_anonymous_args = 0
 270 0000 10B5     		push	{r4, lr}
 271              		.cfi_def_cfa_offset 8
 272              		.cfi_offset 4, -8
 273              		.cfi_offset 14, -4
 274 0002 86B0     		sub	sp, sp, #24
 275              		.cfi_def_cfa_offset 32
  68:.\main.c      ****     CyGlobalIntEnable;
 276              		.loc 1 68 0
 277              	@ 68 ".\main.c" 1
 278 0004 62B6     		CPSIE   i
 279              	@ 0 "" 2
  69:.\main.c      ****     rx_int_StartEx(RX_INT);             // start RX interrupt (look for CY_ISR with RX_INT address)
 280              		.loc 1 69 0
 281              		.thumb
 282 0006 2048     		ldr	r0, .L27
 283 0008 FFF7FEFF 		bl	rx_int_StartEx
 284              	.LVL31:
  70:.\main.c      ****                                         // for code that writes received bytes to LCD.
  71:.\main.c      ****     UART_Start();                       // initialize UART
 285              		.loc 1 71 0
 286 000c FFF7FEFF 		bl	UART_Start
 287              	.LVL32:
  72:.\main.c      ****     UART_ClearRxBuffer();
 288              		.loc 1 72 0
 289 0010 FFF7FEFF 		bl	UART_ClearRxBuffer
 290              	.LVL33:
  73:.\main.c      ****     
  74:.\main.c      ****     LCD_Char_1_Start();     // initialize lcd  
 291              		.loc 1 74 0
 292 0014 FFF7FEFF 		bl	LCD_Char_1_Start
 293              	.LVL34:
  75:.\main.c      ****     LCD_Char_1_ClearDisplay();
 294              		.loc 1 75 0
 295 0018 0120     		movs	r0, #1
 296 001a FFF7FEFF 		bl	LCD_Char_1_WriteControl
 297              	.LVL35:
  76:.\main.c      ****     
  77:.\main.c      ****     ADC_DelSig_1_Start();   // start the ADC_DelSig_1  
 298              		.loc 1 77 0
 299 001e FFF7FEFF 		bl	ADC_DelSig_1_Start
 300              	.LVL36:
  78:.\main.c      ****     ADC_DelSig_1_StartConvert();   // 
 301              		.loc 1 78 0
 302 0022 FFF7FEFF 		bl	ADC_DelSig_1_StartConvert
 303              	.LVL37:
  79:.\main.c      **** 
  80:.\main.c      ****     IDAC8_1_Start();
 304              		.loc 1 80 0
 305 0026 FFF7FEFF 		bl	IDAC8_1_Start
 306              	.LVL38:
  81:.\main.c      ****     
  82:.\main.c      ****     int delay = 100; // milliseconds
  83:.\main.c      ****     
  84:.\main.c      ****     int mode = 0; //0 for key gen, 1 for encryption, 2 for decryption
 307              		.loc 1 84 0
 308 002a 0024     		movs	r4, #0
ARM GAS  C:\Users\kazi\AppData\Local\Temp\ccJQ2SrT.s 			page 8


 309              	.LVL39:
 310              	.L25:
  85:.\main.c      ****     
  86:.\main.c      ****     /* Place your initialization/startup code here (e.g. MyInst_Start()) */
  87:.\main.c      **** 
  88:.\main.c      ****     for(;;)
  89:.\main.c      ****     {
  90:.\main.c      ****         /* Place your application code here. */
  91:.\main.c      ****         if (mode == 0) {
 311              		.loc 1 91 0
 312 002c ECB9     		cbnz	r4, .L23
 313              	.LBB4:
  92:.\main.c      ****             LCD_Char_1_Position(0, 1);    
 314              		.loc 1 92 0
 315 002e 0020     		movs	r0, #0
 316 0030 0121     		movs	r1, #1
 317 0032 FFF7FEFF 		bl	LCD_Char_1_Position
 318              	.LVL40:
  93:.\main.c      ****             LCD_Char_1_PrintString("GENERATING KEY"); // clean up the display    
 319              		.loc 1 93 0
 320 0036 1548     		ldr	r0, .L27+4
 321 0038 FFF7FEFF 		bl	LCD_Char_1_PrintString
 322              	.LVL41:
  94:.\main.c      ****             LCD_Char_1_Position(1, 1);
 323              		.loc 1 94 0
 324 003c 0120     		movs	r0, #1
 325 003e 0146     		mov	r1, r0
 326 0040 FFF7FEFF 		bl	LCD_Char_1_Position
 327              	.LVL42:
  95:.\main.c      ****             uint8 key[16];
  96:.\main.c      ****             GetRandom(key, 16);
 328              		.loc 1 96 0
 329 0044 02A8     		add	r0, sp, #8
 330 0046 1021     		movs	r1, #16
 331 0048 FFF7FEFF 		bl	GetRandom
 332              	.LVL43:
  97:.\main.c      ****             HexPrint(key, 16);
 333              		.loc 1 97 0
 334 004c 02A8     		add	r0, sp, #8
 335 004e 1021     		movs	r1, #16
 336 0050 FFF7FEFF 		bl	HexPrint
 337              	.LVL44:
  98:.\main.c      ****             mode = 1; // go into encryption mode after generating key
  99:.\main.c      ****             char* test = "AA";
 100:.\main.c      ****             uint8 test2[4];
 101:.\main.c      ****             HexToByte(test, test2, 1);
 338              		.loc 1 101 0
 339 0054 0E48     		ldr	r0, .L27+8
 340 0056 01A9     		add	r1, sp, #4
 341 0058 0122     		movs	r2, #1
 342 005a FFF7FEFF 		bl	HexToByte
 343              	.LVL45:
 102:.\main.c      ****             HexPrint(test2,1);
 344              		.loc 1 102 0
 345 005e 01A8     		add	r0, sp, #4
 346 0060 0121     		movs	r1, #1
 347 0062 FFF7FEFF 		bl	HexPrint
ARM GAS  C:\Users\kazi\AppData\Local\Temp\ccJQ2SrT.s 			page 9


 348              	.LVL46:
  98:.\main.c      ****             mode = 1; // go into encryption mode after generating key
 349              		.loc 1 98 0
 350 0066 0124     		movs	r4, #1
 351              	.LBE4:
 352 0068 0AE0     		b	.L24
 353              	.LVL47:
 354              	.L23:
 103:.\main.c      ****             
 104:.\main.c      ****         } else if (mode == 1) {
 355              		.loc 1 104 0
 356 006a 4CB1     		cbz	r4, .L24
 105:.\main.c      ****             LCD_Char_1_ClearDisplay();
 357              		.loc 1 105 0
 358 006c 0120     		movs	r0, #1
 359 006e FFF7FEFF 		bl	LCD_Char_1_WriteControl
 360              	.LVL48:
 106:.\main.c      ****             LCD_Char_1_Position(0, 1);    
 361              		.loc 1 106 0
 362 0072 0020     		movs	r0, #0
 363 0074 0121     		movs	r1, #1
 364 0076 FFF7FEFF 		bl	LCD_Char_1_Position
 365              	.LVL49:
 107:.\main.c      ****             LCD_Char_1_PrintString("ENCRYPTING");
 366              		.loc 1 107 0
 367 007a 0648     		ldr	r0, .L27+12
 368 007c FFF7FEFF 		bl	LCD_Char_1_PrintString
 369              	.LVL50:
 370              	.L24:
 108:.\main.c      ****         }
 109:.\main.c      ****         CyDelay(delay);
 371              		.loc 1 109 0
 372 0080 6420     		movs	r0, #100
 373 0082 FFF7FEFF 		bl	CyDelay
 374              	.LVL51:
 110:.\main.c      ****         
 111:.\main.c      ****     }
 375              		.loc 1 111 0
 376 0086 D1E7     		b	.L25
 377              	.L28:
 378              		.align	2
 379              	.L27:
 380 0088 00000000 		.word	RX_INT
 381 008c 10000000 		.word	.LC2
 382 0090 20000000 		.word	.LC3
 383 0094 24000000 		.word	.LC4
 384              		.cfi_endproc
 385              	.LFE67:
 386              		.size	main, .-main
 387              		.section	.rodata.str1.4,"aMS",%progbits,1
 388              		.align	2
 389              	.LC0:
 390 0000 25326868 		.ascii	"%2hh\000"
 390      00
 391 0005 000000   		.space	3
 392              	.LC1:
 393 0008 25303258 		.ascii	"%02X\000"
ARM GAS  C:\Users\kazi\AppData\Local\Temp\ccJQ2SrT.s 			page 10


 393      00
 394 000d 000000   		.space	3
 395              	.LC2:
 396 0010 47454E45 		.ascii	"GENERATING KEY\000"
 396      52415449 
 396      4E47204B 
 396      455900
 397 001f 00       		.space	1
 398              	.LC3:
 399 0020 414100   		.ascii	"AA\000"
 400 0023 00       		.space	1
 401              	.LC4:
 402 0024 454E4352 		.ascii	"ENCRYPTING\000"
 402      59505449 
 402      4E4700
 403 002f 00       		.text
 404              	.Letext0:
 405              		.file 2 "c:\\program files (x86)\\cypress\\psoc creator\\3.3\\psoc creator\\import\\gnu\\arm\\4.9.
 406              		.file 3 "c:\\program files (x86)\\cypress\\psoc creator\\3.3\\psoc creator\\import\\gnu\\arm\\4.9.
 407              		.file 4 "Generated_Source\\PSoC5/cytypes.h"
 408              		.file 5 "<built-in>"
 409              		.file 6 "Generated_Source\\PSoC5/ADC_DelSig_1.h"
 410              		.file 7 "Generated_Source\\PSoC5/UART.h"
 411              		.file 8 "Generated_Source\\PSoC5/LCD_Char_1.h"
 412              		.file 9 "Generated_Source\\PSoC5/rx_int.h"
 413              		.file 10 "Generated_Source\\PSoC5/IDAC8_1.h"
 414              		.file 11 "Generated_Source\\PSoC5/core_cm3.h"
 415              		.file 12 "Generated_Source\\PSoC5/CyLib.h"